; Function Attrs: mustprogress uwtable
define hidden noundef nonnull align 8 dereferenceable(8) ptr @_ZN3smt15display_verboseERSoR11ast_managerjPKN3sat7literalEPKP4exprPKc(ptr noundef nonnull returned align 8 dereferenceable(8) %0, ptr noundef nonnull align 8 dereferenceable(976) %1, i32 noundef %2, ptr noundef readonly captures(none) %3, ptr noundef readonly captures(none) %4, ptr noundef %5) local_unnamed_addr #4 {
  %.not12 = icmp eq i32 %2, 0
  br i1 %.not12, label %._crit_edge, label %.lr.ph

.lr.ph:                                           ; preds = %6
  %.not.i = icmp eq ptr %5, null
  %wide.trip.count18 = zext i32 %2 to i64
  br i1 %.not.i, label %.lr.ph.split.us, label %.lr.ph.split

.lr.ph.split.us:                                  ; preds = %.lr.ph, %_ZStlsISt11char_traitsIcEERSt13basic_ostreamIcT_ES5_PKc.exit.us
  %indvars.iv15 = phi i64 [ %indvars.iv.next16, %_ZStlsISt11char_traitsIcEERSt13basic_ostreamIcT_ES5_PKc.exit.us ], [ 0, %.lr.ph ]
  %.not.us = icmp eq i64 %indvars.iv15, 0
  br i1 %.not.us, label %_ZStlsISt11char_traitsIcEERSt13basic_ostreamIcT_ES5_PKc.exit.us, label %7

7:                                                ; preds = %.lr.ph.split.us
  %8 = load ptr, ptr %0, align 8, !tbaa !20
  %9 = getelementptr i8, ptr %8, i64 -24
  %10 = load i64, ptr %9, align 8
  %11 = getelementptr inbounds i8, ptr %0, i64 %10
  %12 = getelementptr inbounds nuw i8, ptr %11, i64 32
  %13 = load i32, ptr %12, align 8, !tbaa !22
  %14 = or i32 %13, 1
  tail call void @_ZNSt9basic_iosIcSt11char_traitsIcEE5clearESt12_Ios_Iostate(ptr noundef nonnull align 8 dereferenceable(264) %11, i32 noundef %14)
  br label %_ZStlsISt11char_traitsIcEERSt13basic_ostreamIcT_ES5_PKc.exit.us

_ZStlsISt11char_traitsIcEERSt13basic_ostreamIcT_ES5_PKc.exit.us: ; preds = %7, %.lr.ph.split.us
  %15 = getelementptr inbounds nuw %"class.sat::literal", ptr %3, i64 %indvars.iv15
  %.sroa.0.0.copyload.us = load i32, ptr %15, align 4, !tbaa !16
  %16 = tail call noundef nonnull align 8 dereferenceable(8) ptr @_ZN3smt7displayERSoN3sat7literalER11ast_managerPKP4expr(ptr noundef nonnull align 8 dereferenceable(8) %0, i32 %.sroa.0.0.copyload.us, ptr noundef nonnull align 8 dereferenceable(976) %1, ptr noundef %4)
  %indvars.iv.next16 = add nuw nsw i64 %indvars.iv15, 1
  %exitcond19.not = icmp eq i64 %indvars.iv.next16, %wide.trip.count18
  br i1 %exitcond19.not, label %._crit_edge, label %.lr.ph.split.us, !llvm.loop !32

._crit_edge:                                      ; preds = %_ZStlsISt11char_traitsIcEERSt13basic_ostreamIcT_ES5_PKc.exit, %_ZStlsISt11char_traitsIcEERSt13basic_ostreamIcT_ES5_PKc.exit.us, %6
  ret ptr %0

.lr.ph.split:                                     ; preds = %.lr.ph, %_ZStlsISt11char_traitsIcEERSt13basic_ostreamIcT_ES5_PKc.exit
  %indvars.iv = phi i64 [ %indvars.iv.next, %_ZStlsISt11char_traitsIcEERSt13basic_ostreamIcT_ES5_PKc.exit ], [ 0, %.lr.ph ]
  %.not = icmp eq i64 %indvars.iv, 0
  br i1 %.not, label %_ZStlsISt11char_traitsIcEERSt13basic_ostreamIcT_ES5_PKc.exit, label %17

17:                                               ; preds = %.lr.ph.split
  %18 = tail call noundef i64 @strlen(ptr noundef nonnull dereferenceable(1) %5) #8
  %19 = tail call noundef nonnull align 8 dereferenceable(8) ptr @_ZSt16__ostream_insertIcSt11char_traitsIcEERSt13basic_ostreamIT_T0_ES6_PKS3_l(ptr noundef nonnull align 8 dereferenceable(8) %0, ptr noundef nonnull %5, i64 noundef %18)
  br label %_ZStlsISt11char_traitsIcEERSt13basic_ostreamIcT_ES5_PKc.exit

_ZStlsISt11char_traitsIcEERSt13basic_ostreamIcT_ES5_PKc.exit: ; preds = %17, %.lr.ph.split
  %20 = getelementptr inbounds nuw %"class.sat::literal", ptr %3, i64 %indvars.iv
  %.sroa.0.0.copyload = load i32, ptr %20, align 4, !tbaa !16
  %21 = tail call noundef nonnull align 8 dereferenceable(8) ptr @_ZN3smt7displayERSoN3sat7literalER11ast_managerPKP4expr(ptr noundef nonnull align 8 dereferenceable(8) %0, i32 %.sroa.0.0.copyload, ptr noundef nonnull align 8 dereferenceable(976) %1, ptr noundef %4)
  %indvars.iv.next = add nuw nsw i64 %indvars.iv, 1
  %exitcond.not = icmp eq i64 %indvars.iv.next, %wide.trip.count18
  br i1 %exitcond.not, label %._crit_edge, label %.lr.ph.split, !llvm.loop !32
}